target datalayout = "e-m:e-p270:32:32-p271:32:32-p272:64:64-i64:64-i128:128-f80:128-n8:16:32:64-S128"
target triple = "x86_64-pc-linux-gnu"

%"class.sls::array_plugin" = type { %"class.sls::plugin.base", ptr, %class.array_util, %class.scoped_ptr, %class.scoped_ptr.0, i8, i8, %"struct.sls::array_plugin::stats", %class.svector }
%"class.sls::plugin.base" = type <{ ptr, ptr, ptr, i32 }>
%class.array_util = type { %class.array_recognizers, ptr }
%class.array_recognizers = type { i32 }
%class.scoped_ptr = type { ptr }
%class.scoped_ptr.0 = type { ptr }
%"struct.sls::array_plugin::stats" = type { i32, i32 }
%class.svector = type { %class.vector }
%class.vector = type { ptr }
%class.ptr_vector.50 = type { %class.vector.51 }
%class.vector.51 = type { ptr }
%"class.euf::egraph" = type { ptr, %class.svector.37, %"class.euf::etable", %class.region, %class.scoped_ptr_vector.45, %class.svector.48, %class.svector.2, %class.ptr_vector.50, ptr, ptr, i32, %class.tmp_app, %class.ptr_vector.50, %class.ref_vector, %class.ref_vector.52, %class.vector.57, %class.ptr_vector.50, i32, i8, ptr, ptr, %"class.euf::justification", i32, %class.svector.59, %class.svector.61, %class.ptr_vector.50, %"struct.euf::egraph::stats", i8, i8, i64, %"class.std::vector", %"class.std::function", %"class.std::function.63", %"class.std::function.65", %"class.std::function.67", %"class.std::function.70" }
%class.svector.37 = type { %class.vector.38 }
%class.vector.38 = type { ptr }
%"class.euf::etable" = type { ptr, i8, %class.ptr_vector.39, %class.map.41 }
%class.ptr_vector.39 = type { %class.vector.40 }
%class.vector.40 = type { ptr }
%class.map.41 = type { %class.table2map.42 }
%class.table2map.42 = type { %class.core_hashtable.43 }
%class.core_hashtable.43 = type <{ ptr, i32, i32, i32, [4 x i8] }>
%class.region = type { ptr, ptr, ptr, ptr, ptr }
%class.scoped_ptr_vector.45 = type { %class.ptr_vector.46 }
%class.ptr_vector.46 = type { %class.vector.47 }
%class.vector.47 = type { ptr }
%class.svector.48 = type { %class.vector.49 }
%class.vector.49 = type { ptr }
%class.svector.2 = type { %class.vector.3 }
%class.vector.3 = type { ptr }
%class.tmp_app = type { i32, ptr }
%class.ref_vector = type { %class.ref_vector_core }
%class.ref_vector_core = type { %class.ref_manager_wrapper, %class.ptr_vector.4 }
%class.ref_manager_wrapper = type { ptr }
%class.ptr_vector.4 = type { %class.vector.5 }
%class.vector.5 = type { ptr }
%class.ref_vector.52 = type { %class.ref_vector_core.53 }
%class.ref_vector_core.53 = type { %class.ref_manager_wrapper.54, %class.ptr_vector.55 }
%class.ref_manager_wrapper.54 = type { ptr }
%class.ptr_vector.55 = type { %class.vector.56 }
%class.vector.56 = type { ptr }
%class.vector.57 = type { ptr }
%"class.euf::justification" = type { i32, %union.anon, %union.anon.58 }
%union.anon = type { ptr }
%union.anon.58 = type { ptr }
%class.svector.59 = type { %class.vector.60 }
%class.vector.60 = type { ptr }
%class.svector.61 = type { %class.vector.62 }
%class.vector.62 = type { ptr }
%"struct.euf::egraph::stats" = type { i32, i32, i32, i32, i32, i32 }
%"class.std::vector" = type { %"struct.std::_Vector_base" }
%"struct.std::_Vector_base" = type { %"struct.std::_Vector_base<std::function<void (euf::enode *, euf::enode *)>, std::allocator<std::function<void (euf::enode *, euf::enode *)>>>::_Vector_impl" }
%"struct.std::_Vector_base<std::function<void (euf::enode *, euf::enode *)>, std::allocator<std::function<void (euf::enode *, euf::enode *)>>>::_Vector_impl" = type { %"struct.std::_Vector_base<std::function<void (euf::enode *, euf::enode *)>, std::allocator<std::function<void (euf::enode *, euf::enode *)>>>::_Vector_impl_data" }
%"struct.std::_Vector_base<std::function<void (euf::enode *, euf::enode *)>, std::allocator<std::function<void (euf::enode *, euf::enode *)>>>::_Vector_impl_data" = type { ptr, ptr, ptr }
%"class.std::function" = type { %"class.std::_Function_base", ptr }
%"class.std::_Function_base" = type { %"union.std::_Any_data", ptr }
%"union.std::_Any_data" = type { %"union.std::_Nocopy_types" }
%"union.std::_Nocopy_types" = type { { i64, i64 } }
%"class.std::function.63" = type { %"class.std::_Function_base", ptr }
%"class.std::function.65" = type { %"class.std::_Function_base", ptr }
%"class.std::function.67" = type { %"class.std::_Function_base", ptr }
%"class.std::function.70" = type { %"class.std::_Function_base", ptr }
%"struct.sls::array_plugin::axiom_instance" = type { i32, ptr, ptr }
%"class.euf::enode" = type { ptr, i8, i8, i8, i8, i8, i8, i8, i8, i8, i32, i32, i32, i32, i32, i32, %class.ptr_vector.50, ptr, ptr, ptr, ptr, %class.id_var_list, %"class.euf::justification", %"class.euf::justification", i32, i8, %class.approx_set, %class.approx_set, [0 x ptr] }
%class.id_var_list = type { i32, ptr }
%class.approx_set = type { %class.approx_set_tpl }
%class.approx_set_tpl = type { i64 }

; Function Attrs: mustprogress nounwind uwtable
define linkonce_odr hidden void @_ZN3euf13justificationC2EPv(ptr noundef nonnull align 8 dereferenceable(24) %0, ptr noundef %1) unnamed_addr #5 comdat align 2 {
  %3 = alloca ptr, align 8
  %4 = alloca ptr, align 8
  store ptr %0, ptr %3, align 8, !tbaa !348
  store ptr %1, ptr %4, align 8, !tbaa !245
  %5 = load ptr, ptr %3, align 8
  %6 = getelementptr inbounds nuw %"class.euf::justification", ptr %5, i32 0, i32 0
  store i32 2, ptr %6, align 8, !tbaa !350
  %7 = getelementptr inbounds nuw %"class.euf::justification", ptr %5, i32 0, i32 1
  store i8 0, ptr %7, align 8, !tbaa !351
  %8 = getelementptr inbounds nuw %"class.euf::justification", ptr %5, i32 0, i32 2
  %9 = load ptr, ptr %4, align 8, !tbaa !245
  store ptr %9, ptr %8, align 8, !tbaa !351
  ret void
}

; Function Attrs: mustprogress uwtable
define linkonce_odr hidden void @_ZN3euf13justification8externalEPv(ptr dead_on_unwind noalias writable sret(%"class.euf::justification") align 8 %0, ptr noundef %1) #4 comdat align 2 {
  %3 = alloca ptr, align 8
  store ptr %1, ptr %3, align 8, !tbaa !245
  %4 = load ptr, ptr %3, align 8, !tbaa !245
  call void @_ZN3euf13justificationC2EPv(ptr noundef nonnull align 8 dereferenceable(24) %0, ptr noundef %4)
  ret void
}

; Function Attrs: mustprogress nounwind uwtable
define linkonce_odr hidden noundef i32 @_ZNK6vectorIN3sls12array_plugin14axiom_instanceELb0EjE4sizeEv(ptr noundef nonnull align 8 dereferenceable(8) %0) #5 comdat align 2 {
  %2 = alloca i32, align 4
  %3 = alloca ptr, align 8
  store ptr %0, ptr %3, align 8, !tbaa !50
  %4 = load ptr, ptr %3, align 8
  %5 = getelementptr inbounds nuw %class.vector, ptr %4, i32 0, i32 0
  %6 = load ptr, ptr %5, align 8, !tbaa !164
  %7 = icmp eq ptr %6, null
  br i1 %7, label %8, label %9

8:                                                ; preds = %1
  store i32 0, ptr %2, align 4
  br label %14

9:                                                ; preds = %1
  %10 = getelementptr inbounds nuw %class.vector, ptr %4, i32 0, i32 0
  %11 = load ptr, ptr %10, align 8, !tbaa !164
  %12 = getelementptr inbounds i32, ptr %11, i64 -1
  %13 = load i32, ptr %12, align 4, !tbaa !73
  store i32 %13, ptr %2, align 4
  br label %14

14:                                               ; preds = %9, %8
  %15 = load i32, ptr %2, align 4
  ret i32 %15
}

; Function Attrs: mustprogress uwtable
define linkonce_odr hidden noundef nonnull align 8 dereferenceable(8) ptr @_ZN6vectorIN3sls12array_plugin14axiom_instanceELb0EjE9push_backEOS2_(ptr noundef nonnull align 8 dereferenceable(8) %0, ptr noundef nonnull align 8 dereferenceable(24) %1) #4 comdat align 2 {
  %3 = alloca ptr, align 8
  %4 = alloca ptr, align 8
  store ptr %0, ptr %3, align 8, !tbaa !50
  store ptr %1, ptr %4, align 8, !tbaa !352
  %5 = load ptr, ptr %3, align 8
  %6 = getelementptr inbounds nuw %class.vector, ptr %5, i32 0, i32 0
  %7 = load ptr, ptr %6, align 8, !tbaa !164
  %8 = icmp eq ptr %7, null
  br i1 %8, label %19, label %9

9:                                                ; preds = %2
  %10 = getelementptr inbounds nuw %class.vector, ptr %5, i32 0, i32 0
  %11 = load ptr, ptr %10, align 8, !tbaa !164
  %12 = getelementptr inbounds i32, ptr %11, i64 -1
  %13 = load i32, ptr %12, align 4, !tbaa !73
  %14 = getelementptr inbounds nuw %class.vector, ptr %5, i32 0, i32 0
  %15 = load ptr, ptr %14, align 8, !tbaa !164
  %16 = getelementptr inbounds i32, ptr %15, i64 -2
  %17 = load i32, ptr %16, align 4, !tbaa !73
  %18 = icmp eq i32 %13, %17
  br i1 %18, label %19, label %20

19:                                               ; preds = %9, %2
  call void @_ZN6vectorIN3sls12array_plugin14axiom_instanceELb0EjE13expand_vectorEv(ptr noundef nonnull align 8 dereferenceable(8) %5)
  br label %20

20:                                               ; preds = %19, %9
  %21 = getelementptr inbounds nuw %class.vector, ptr %5, i32 0, i32 0
  %22 = load ptr, ptr %21, align 8, !tbaa !164
  %23 = getelementptr inbounds nuw %class.vector, ptr %5, i32 0, i32 0
  %24 = load ptr, ptr %23, align 8, !tbaa !164
  %25 = getelementptr inbounds i32, ptr %24, i64 -1
  %26 = load i32, ptr %25, align 4, !tbaa !73
  %27 = zext i32 %26 to i64
  %28 = getelementptr inbounds nuw %"struct.sls::array_plugin::axiom_instance", ptr %22, i64 %27
  %29 = load ptr, ptr %4, align 8, !tbaa !352
  call void @llvm.memcpy.p0.p0.i64(ptr align 8 %28, ptr align 8 %29, i64 24, i1 false), !tbaa.struct !148
  %30 = getelementptr inbounds nuw %class.vector, ptr %5, i32 0, i32 0
  %31 = load ptr, ptr %30, align 8, !tbaa !164
  %32 = getelementptr inbounds i32, ptr %31, i64 -1
  %33 = load i32, ptr %32, align 4, !tbaa !73
  %34 = add i32 %33, 1
  store i32 %34, ptr %32, align 4, !tbaa !73
  ret ptr %5
}

; Function Attrs: mustprogress nounwind uwtable
define linkonce_odr hidden noundef zeroext i1 @_ZNK3euf5enode11interpretedEv(ptr noundef nonnull align 8 dereferenceable(176) %0) #5 comdat align 2 {
  %2 = alloca ptr, align 8
  store ptr %0, ptr %2, align 8, !tbaa !66
  %3 = load ptr, ptr %2, align 8
  %4 = getelementptr inbounds nuw %"class.euf::enode", ptr %3, i32 0, i32 5
  %5 = load i8, ptr %4, align 4, !tbaa !259, !range !54, !noundef !55
  %6 = trunc i8 %5 to i1
  ret i1 %6
}

; Function Attrs: mustprogress uwtable
define linkonce_odr hidden void @_ZN3euf6egraph5mergeEPNS_5enodeES2_Pv(ptr noundef nonnull align 8 dereferenceable(536) %0, ptr noundef %1, ptr noundef %2, ptr noundef %3) #4 comdat align 2 {
  %5 = alloca ptr, align 8
  %6 = alloca ptr, align 8
  %7 = alloca ptr, align 8
  %8 = alloca ptr, align 8
  %9 = alloca %"class.euf::justification", align 8
  store ptr %0, ptr %5, align 8, !tbaa !35
  store ptr %1, ptr %6, align 8, !tbaa !66
  store ptr %2, ptr %7, align 8, !tbaa !66
  store ptr %3, ptr %8, align 8, !tbaa !245
  %10 = load ptr, ptr %5, align 8
  %11 = load ptr, ptr %6, align 8, !tbaa !66
  %12 = load ptr, ptr %7, align 8, !tbaa !66
  %13 = load ptr, ptr %8, align 8, !tbaa !245
  call void @_ZN3euf13justification8externalEPv(ptr dead_on_unwind writable sret(%"class.euf::justification") align 8 %9, ptr noundef %13)
  call void @_ZN3euf6egraph5mergeEPNS_5enodeES2_NS_13justificationE(ptr noundef nonnull align 8 dereferenceable(536) %10, ptr noundef %11, ptr noundef %12, ptr noundef byval(%"class.euf::justification") align 8 %9)
  ret void
}

; Function Attrs: mustprogress nounwind uwtable
define linkonce_odr hidden noundef ptr @_ZN3sls12array_plugin6to_ptrEj(ptr noundef nonnull align 8 dereferenceable(96) %0, i32 noundef %1) #5 comdat align 2 {
  %3 = alloca ptr, align 8
  %4 = alloca i32, align 4
  store ptr %0, ptr %3, align 8, !tbaa !3
  store i32 %1, ptr %4, align 4, !tbaa !73
  %5 = load i32, ptr %4, align 4, !tbaa !73
  %6 = shl i32 %5, 4
  %7 = zext i32 %6 to i64
  %8 = add i64 %7, 3
  %9 = inttoptr i64 %8 to ptr
  ret ptr %9
}

; Function Attrs: mustprogress uwtable
define linkonce_odr hidden noundef i32 @_ZN3sls12array_plugin17const_axiom_indexEPN3euf5enodeES3_(ptr noundef nonnull align 8 dereferenceable(96) %0, ptr noundef %1, ptr noundef %2) #4 comdat align 2 {
  %4 = alloca ptr, align 8
  %5 = alloca ptr, align 8
  %6 = alloca ptr, align 8
  %7 = alloca %"struct.sls::array_plugin::axiom_instance", align 8
  store ptr %0, ptr %4, align 8, !tbaa !3
  store ptr %1, ptr %5, align 8, !tbaa !66
  store ptr %2, ptr %6, align 8, !tbaa !66
  %8 = load ptr, ptr %4, align 8
  %9 = getelementptr inbounds nuw %"class.sls::array_plugin", ptr %8, i32 0, i32 8
  call void @llvm.lifetime.start.p0(i64 24, ptr %7) #3
  %10 = getelementptr inbounds nuw %"struct.sls::array_plugin::axiom_instance", ptr %7, i32 0, i32 0
  store i32 4, ptr %10, align 8, !tbaa !151
  %11 = getelementptr inbounds nuw %"struct.sls::array_plugin::axiom_instance", ptr %7, i32 0, i32 1
  %12 = load ptr, ptr %5, align 8, !tbaa !66
  store ptr %12, ptr %11, align 8, !tbaa !153
  %13 = getelementptr inbounds nuw %"struct.sls::array_plugin::axiom_instance", ptr %7, i32 0, i32 2
  %14 = load ptr, ptr %6, align 8, !tbaa !66
  store ptr %14, ptr %13, align 8, !tbaa !154
  %15 = call noundef nonnull align 8 dereferenceable(8) ptr @_ZN6vectorIN3sls12array_plugin14axiom_instanceELb0EjE9push_backEOS2_(ptr noundef nonnull align 8 dereferenceable(8) %9, ptr noundef nonnull align 8 dereferenceable(24) %7)
  call void @llvm.lifetime.end.p0(i64 24, ptr %7) #3
  %16 = getelementptr inbounds nuw %"class.sls::array_plugin", ptr %8, i32 0, i32 8
  %17 = call noundef i32 @_ZNK6vectorIN3sls12array_plugin14axiom_instanceELb0EjE4sizeEv(ptr noundef nonnull align 8 dereferenceable(8) %16)
  %18 = sub i32 %17, 1
  ret i32 %18
}

; Function Attrs: mustprogress uwtable
define hidden noundef zeroext i1 @_ZN3sls12array_plugin12are_distinctEPN3euf5enodeES3_(ptr noundef nonnull align 8 dereferenceable(96) %0, ptr noundef %1, ptr noundef %2) #4 align 2 {
  %4 = alloca ptr, align 8
  %5 = alloca ptr, align 8
  %6 = alloca ptr, align 8
  store ptr %0, ptr %4, align 8, !tbaa !3
  store ptr %1, ptr %5, align 8, !tbaa !66
  store ptr %2, ptr %6, align 8, !tbaa !66
  %7 = load ptr, ptr %5, align 8, !tbaa !66
  %8 = call noundef ptr @_ZNK3euf5enode8get_rootEv(ptr noundef nonnull align 8 dereferenceable(176) %7)
  store ptr %8, ptr %5, align 8, !tbaa !66
  %9 = load ptr, ptr %6, align 8, !tbaa !66
  %10 = call noundef ptr @_ZNK3euf5enode8get_rootEv(ptr noundef nonnull align 8 dereferenceable(176) %9)
  store ptr %10, ptr %6, align 8, !tbaa !66
  %11 = load ptr, ptr %5, align 8, !tbaa !66
  %12 = call noundef zeroext i1 @_ZNK3euf5enode11interpretedEv(ptr noundef nonnull align 8 dereferenceable(176) %11)
  br i1 %12, label %13, label %20

13:                                               ; preds = %3
  %14 = load ptr, ptr %6, align 8, !tbaa !66
  %15 = call noundef zeroext i1 @_ZNK3euf5enode11interpretedEv(ptr noundef nonnull align 8 dereferenceable(176) %14)
  br i1 %15, label %16, label %20

16:                                               ; preds = %13
  %17 = load ptr, ptr %5, align 8, !tbaa !66
  %18 = load ptr, ptr %6, align 8, !tbaa !66
  %19 = icmp ne ptr %17, %18
  br label %20

20:                                               ; preds = %16, %13, %3
  %21 = phi i1 [ false, %13 ], [ false, %3 ], [ %19, %16 ]
  ret i1 %21
}

; Function Attrs: mustprogress nounwind uwtable
define linkonce_odr hidden noundef ptr @_ZNK3euf5enode8get_rootEv(ptr noundef nonnull align 8 dereferenceable(176) %0) #5 comdat align 2 {
  %2 = alloca ptr, align 8
  store ptr %0, ptr %2, align 8, !tbaa !66
  %3 = load ptr, ptr %2, align 8
  %4 = getelementptr inbounds nuw %"class.euf::enode", ptr %3, i32 0, i32 18
  %5 = load ptr, ptr %4, align 8, !tbaa !228
  ret ptr %5
}

; Function Attrs: mustprogress nounwind uwtable
define linkonce_odr hidden noundef ptr @_ZNK3euf5enode7get_argEj(ptr noundef nonnull align 8 dereferenceable(176) %0, i32 noundef %1) #5 comdat align 2 {
  %3 = alloca ptr, align 8
  %4 = alloca i32, align 4
  store ptr %0, ptr %3, align 8, !tbaa !66
  store i32 %1, ptr %4, align 4, !tbaa !73
  %5 = load ptr, ptr %3, align 8
  %6 = getelementptr inbounds nuw %"class.euf::enode", ptr %5, i32 0, i32 28
  %7 = load i32, ptr %4, align 4, !tbaa !73
  %8 = zext i32 %7 to i64
  %9 = getelementptr inbounds nuw [0 x ptr], ptr %6, i64 0, i64 %8
  %10 = load ptr, ptr %9, align 8, !tbaa !66
  ret ptr %10
}

; Function Attrs: mustprogress nounwind uwtable
define linkonce_odr hidden noundef zeroext i1 @_ZNK3euf6egraph12inconsistentEv(ptr noundef nonnull align 8 dereferenceable(536) %0) #5 comdat align 2 {
  %2 = alloca ptr, align 8
  store ptr %0, ptr %2, align 8, !tbaa !35
  %3 = load ptr, ptr %2, align 8
  %4 = getelementptr inbounds nuw %"class.euf::egraph", ptr %3, i32 0, i32 18
  %5 = load i8, ptr %4, align 4, !tbaa !77, !range !54, !noundef !55
  %6 = trunc i8 %5 to i1
  ret i1 %6
}

; Function Attrs: mustprogress uwtable
define hidden void @_ZN3sls12array_plugin17force_const_axiomERN3euf6egraphEPNS1_5enodeES5_(ptr noundef nonnull align 8 dereferenceable(96) %0, ptr noundef nonnull align 8 dereferenceable(536) %1, ptr noundef %2, ptr noundef %3) #4 align 2 {
  %5 = alloca ptr, align 8
  %6 = alloca ptr, align 8
  %7 = alloca ptr, align 8
  %8 = alloca ptr, align 8
  %9 = alloca ptr, align 8
  %10 = alloca ptr, align 8
  %11 = alloca i32, align 4
  store ptr %0, ptr %5, align 8, !tbaa !3
  store ptr %1, ptr %6, align 8, !tbaa !35
  store ptr %2, ptr %7, align 8, !tbaa !66
  store ptr %3, ptr %8, align 8, !tbaa !66
  %12 = load ptr, ptr %5, align 8
  %13 = load ptr, ptr %6, align 8, !tbaa !35
  %14 = call noundef zeroext i1 @_ZNK3euf6egraph12inconsistentEv(ptr noundef nonnull align 8 dereferenceable(536) %13)
  br i1 %14, label %15, label %16

15:                                               ; preds = %4
  br label %57

16:                                               ; preds = %4
  %17 = load ptr, ptr %8, align 8, !tbaa !66
  %18 = call noundef ptr @_ZNK3euf5enode7get_argEj(ptr noundef nonnull align 8 dereferenceable(176) %17, i32 noundef 0)
  %19 = call noundef ptr @_ZNK3euf5enode8get_rootEv(ptr noundef nonnull align 8 dereferenceable(176) %18)
  %20 = load ptr, ptr %7, align 8, !tbaa !66
  %21 = call noundef ptr @_ZNK3euf5enode8get_rootEv(ptr noundef nonnull align 8 dereferenceable(176) %20)
  %22 = icmp ne ptr %19, %21
  br i1 %22, label %23, label %24

23:                                               ; preds = %16
  br label %57

24:                                               ; preds = %16
  call void @llvm.lifetime.start.p0(i64 8, ptr %9) #3
  %25 = load ptr, ptr %7, align 8, !tbaa !66
  %26 = call noundef ptr @_ZNK3euf5enode7get_argEj(ptr noundef nonnull align 8 dereferenceable(176) %25, i32 noundef 0)
  store ptr %26, ptr %9, align 8, !tbaa !66
  call void @llvm.lifetime.start.p0(i64 8, ptr %10) #3
  %27 = load ptr, ptr %6, align 8, !tbaa !35
  %28 = load ptr, ptr %7, align 8, !tbaa !66
  %29 = load ptr, ptr %8, align 8, !tbaa !66
  %30 = call noundef ptr @_ZN3sls12array_plugin9mk_selectERN3euf6egraphEPNS1_5enodeES5_(ptr noundef nonnull align 8 dereferenceable(96) %12, ptr noundef nonnull align 8 dereferenceable(536) %27, ptr noundef %28, ptr noundef %29)
  store ptr %30, ptr %10, align 8, !tbaa !66
  %31 = load ptr, ptr %10, align 8, !tbaa !66
  %32 = load ptr, ptr %8, align 8, !tbaa !66
  %33 = call noundef zeroext i1 @_ZN3sls12array_plugin12are_distinctEPN3euf5enodeES3_(ptr noundef nonnull align 8 dereferenceable(96) %12, ptr noundef %31, ptr noundef %32)
  br i1 %33, label %48, label %34

34:                                               ; preds = %24
  %35 = load ptr, ptr %6, align 8, !tbaa !35
  %36 = load ptr, ptr %10, align 8, !tbaa !66
  %37 = load ptr, ptr %8, align 8, !tbaa !66
  %38 = load ptr, ptr %9, align 8, !tbaa !66
  %39 = load ptr, ptr %10, align 8, !tbaa !66
  %40 = call noundef i32 @_ZN3sls12array_plugin17const_axiom_indexEPN3euf5enodeES3_(ptr noundef nonnull align 8 dereferenceable(96) %12, ptr noundef %38, ptr noundef %39)
  %41 = call noundef ptr @_ZN3sls12array_plugin6to_ptrEj(ptr noundef nonnull align 8 dereferenceable(96) %12, i32 noundef %40)
  call void @_ZN3euf6egraph5mergeEPNS_5enodeES2_Pv(ptr noundef nonnull align 8 dereferenceable(536) %35, ptr noundef %36, ptr noundef %37, ptr noundef %41)
  %42 = load ptr, ptr %6, align 8, !tbaa !35
  %43 = call noundef zeroext i1 @_ZN3euf6egraph9propagateEv(ptr noundef nonnull align 8 dereferenceable(536) %42)
  %44 = load ptr, ptr %6, align 8, !tbaa !35
  %45 = call noundef zeroext i1 @_ZNK3euf6egraph12inconsistentEv(ptr noundef nonnull align 8 dereferenceable(536) %44)
  br i1 %45, label %47, label %46

46:                                               ; preds = %34
  store i32 1, ptr %11, align 4
  br label %55

47:                                               ; preds = %34
  br label %48

48:                                               ; preds = %47, %24
  %49 = getelementptr inbounds nuw %"class.sls::array_plugin", ptr %12, i32 0, i32 7
  %50 = getelementptr inbounds nuw %"struct.sls::array_plugin::stats", ptr %49, i32 0, i32 1
  %51 = load i32, ptr %50, align 4, !tbaa !166
  %52 = add i32 %51, 1
  store i32 %52, ptr %50, align 4, !tbaa !166
  %53 = load ptr, ptr %9, align 8, !tbaa !66
  %54 = load ptr, ptr %10, align 8, !tbaa !66
  call void @_ZN3sls12array_plugin12add_eq_axiomEPN3euf5enodeES3_(ptr noundef nonnull align 8 dereferenceable(96) %12, ptr noundef %53, ptr noundef %54)
  store i32 0, ptr %11, align 4
  br label %55

55:                                               ; preds = %48, %46
  call void @llvm.lifetime.end.p0(i64 8, ptr %10) #3
  call void @llvm.lifetime.end.p0(i64 8, ptr %9) #3
  %56 = load i32, ptr %11, align 4
  switch i32 %56, label %58 [
    i32 0, label %57
    i32 1, label %57
  ]

57:                                               ; preds = %15, %23, %55, %55
  ret void

58:                                               ; preds = %55
  unreachable
}