; Function Attrs: mustprogress uwtable
define hidden void @_ZN3sls12array_plugin17force_const_axiomERN3euf6egraphEPNS1_5enodeES5_(ptr noundef nonnull align 8 dereferenceable(96) %0, ptr noundef nonnull align 8 dereferenceable(536) %1, ptr noundef %2, ptr noundef %3) local_unnamed_addr #3 align 2 {
  %5 = alloca %"class.euf::justification", align 8
  %6 = getelementptr inbounds nuw i8, ptr %1, i64 236
  %7 = load i8, ptr %6, align 4, !tbaa !47, !range !44, !noundef !45
  %8 = trunc nuw i8 %7 to i1
  br i1 %8, label %60, label %9

9:                                                ; preds = %4
  %10 = getelementptr inbounds nuw i8, ptr %3, i64 176
  %11 = load ptr, ptr %10, align 8, !tbaa !129
  %12 = getelementptr inbounds nuw i8, ptr %11, i64 64
  %13 = load ptr, ptr %12, align 8, !tbaa !189
  %14 = getelementptr inbounds nuw i8, ptr %2, i64 64
  %15 = load ptr, ptr %14, align 8, !tbaa !189
  %.not = icmp eq ptr %13, %15
  br i1 %.not, label %16, label %60

16:                                               ; preds = %9
  %17 = getelementptr inbounds nuw i8, ptr %2, i64 176
  %18 = load ptr, ptr %17, align 8, !tbaa !129
  %19 = tail call noundef ptr @_ZN3sls12array_plugin9mk_selectERN3euf6egraphEPNS1_5enodeES5_(ptr noundef nonnull align 8 dereferenceable(96) %0, ptr noundef nonnull align 8 dereferenceable(536) %1, ptr noundef nonnull %2, ptr noundef nonnull %3)
  %20 = getelementptr inbounds nuw i8, ptr %19, i64 64
  %21 = load ptr, ptr %20, align 8, !tbaa !189
  %22 = getelementptr inbounds nuw i8, ptr %21, i64 12
  %23 = load i8, ptr %22, align 4, !tbaa !190, !range !44, !noundef !45
  %24 = trunc nuw i8 %23 to i1
  br i1 %24, label %_ZN3sls12array_plugin12are_distinctEPN3euf5enodeES3_.exit, label %_ZN3sls12array_plugin12are_distinctEPN3euf5enodeES3_.exit.thread

_ZN3sls12array_plugin12are_distinctEPN3euf5enodeES3_.exit: ; preds = %16
  %25 = getelementptr inbounds nuw i8, ptr %3, i64 64
  %26 = load ptr, ptr %25, align 8, !tbaa !189
  %27 = getelementptr inbounds nuw i8, ptr %26, i64 12
  %28 = load i8, ptr %27, align 4, !tbaa !190, !range !44, !noundef !45
  %29 = trunc nuw i8 %28 to i1
  %30 = icmp ne ptr %21, %26
  %spec.select.i = and i1 %30, %29
  br i1 %spec.select.i, label %56, label %_ZN3sls12array_plugin12are_distinctEPN3euf5enodeES3_.exit.thread

_ZN3sls12array_plugin12are_distinctEPN3euf5enodeES3_.exit.thread: ; preds = %16, %_ZN3sls12array_plugin12are_distinctEPN3euf5enodeES3_.exit
  %31 = getelementptr inbounds nuw i8, ptr %0, i64 88
  %32 = load ptr, ptr %31, align 8, !tbaa !31
  %33 = icmp eq ptr %32, null
  br i1 %33, label %40, label %34

34:                                               ; preds = %_ZN3sls12array_plugin12are_distinctEPN3euf5enodeES3_.exit.thread
  %35 = getelementptr inbounds i8, ptr %32, i64 -4
  %36 = load i32, ptr %35, align 4, !tbaa !116
  %37 = getelementptr inbounds i8, ptr %32, i64 -8
  %38 = load i32, ptr %37, align 4, !tbaa !116
  %39 = icmp eq i32 %36, %38
  br i1 %39, label %40, label %_ZN3sls12array_plugin17const_axiom_indexEPN3euf5enodeES3_.exit

40:                                               ; preds = %34, %_ZN3sls12array_plugin12are_distinctEPN3euf5enodeES3_.exit.thread
  tail call void @_ZN6vectorIN3sls12array_plugin14axiom_instanceELb0EjE13expand_vectorEv(ptr noundef nonnull align 8 dereferenceable(8) %31)
  %.pre.i.i = load ptr, ptr %31, align 8, !tbaa !31
  %.phi.trans.insert.i.i = getelementptr inbounds i8, ptr %.pre.i.i, i64 -4
  %.pre2.i.i = load i32, ptr %.phi.trans.insert.i.i, align 4, !tbaa !116
  br label %_ZN3sls12array_plugin17const_axiom_indexEPN3euf5enodeES3_.exit

_ZN3sls12array_plugin17const_axiom_indexEPN3euf5enodeES3_.exit: ; preds = %34, %40
  %41 = phi i32 [ %.pre2.i.i, %40 ], [ %36, %34 ]
  %42 = phi ptr [ %.pre.i.i, %40 ], [ %32, %34 ]
  %43 = zext i32 %41 to i64
  %44 = getelementptr inbounds nuw %"struct.sls::array_plugin::axiom_instance", ptr %42, i64 %43
  store i32 4, ptr %44, align 8, !tbaa !191
  %.sroa.43.0..sroa_idx.i = getelementptr inbounds nuw i8, ptr %44, i64 8
  store ptr %18, ptr %.sroa.43.0..sroa_idx.i, align 8, !tbaa !129
  %.sroa.5.0..sroa_idx.i = getelementptr inbounds nuw i8, ptr %44, i64 16
  store ptr %19, ptr %.sroa.5.0..sroa_idx.i, align 8, !tbaa !129
  %45 = getelementptr inbounds i8, ptr %42, i64 -4
  %46 = add i32 %41, 1
  store i32 %46, ptr %45, align 4, !tbaa !116
  %47 = shl i32 %41, 4
  %48 = or disjoint i32 %47, 3
  %49 = zext i32 %48 to i64
  %50 = inttoptr i64 %49 to ptr
  call void @llvm.lifetime.start.p0(i64 24, ptr nonnull %5)
  store i32 2, ptr %5, align 8, !tbaa !147, !alias.scope !244
  %51 = getelementptr inbounds nuw i8, ptr %5, i64 8
  store i8 0, ptr %51, align 8, !tbaa !135, !alias.scope !244
  %52 = getelementptr inbounds nuw i8, ptr %5, i64 16
  store ptr %50, ptr %52, align 8, !tbaa !135, !alias.scope !244
  tail call void @_ZN3euf6egraph5mergeEPNS_5enodeES2_NS_13justificationE(ptr noundef nonnull align 8 dereferenceable(536) %1, ptr noundef nonnull %19, ptr noundef nonnull %3, ptr noundef nonnull byval(%"class.euf::justification") align 8 %5)
  call void @llvm.lifetime.end.p0(i64 24, ptr nonnull %5)
  %53 = tail call noundef zeroext i1 @_ZN3euf6egraph9propagateEv(ptr noundef nonnull align 8 dereferenceable(536) %1)
  %54 = load i8, ptr %6, align 4, !tbaa !47, !range !44, !noundef !45
  %55 = trunc nuw i8 %54 to i1
  br i1 %55, label %56, label %60

56:                                               ; preds = %_ZN3sls12array_plugin17const_axiom_indexEPN3euf5enodeES3_.exit, %_ZN3sls12array_plugin12are_distinctEPN3euf5enodeES3_.exit
  %57 = getelementptr inbounds nuw i8, ptr %0, i64 80
  %58 = load i32, ptr %57, align 8, !tbaa !207
  %59 = add i32 %58, 1
  store i32 %59, ptr %57, align 8, !tbaa !207
  tail call void @_ZN3sls12array_plugin12add_eq_axiomEPN3euf5enodeES3_(ptr noundef nonnull align 8 dereferenceable(96) %0, ptr noundef %18, ptr noundef nonnull %19)
  br label %60

60:                                               ; preds = %56, %_ZN3sls12array_plugin17const_axiom_indexEPN3euf5enodeES3_.exit, %9, %4
  ret void
}